; ModuleID = '46/1437.c'
source_filename = "46/1437.c"
target datalayout = "e-m:e-p270:32:32-p271:32:32-p272:64:64-i64:64-f80:128-n8:16:32:64-S128"
target triple = "x86_64-pc-linux-gnu"

@.str = private unnamed_addr constant [5 x i8] c"%d%d\00", align 1
@.str.1 = private unnamed_addr constant [3 x i8] c"%d\00", align 1
@.str.2 = private unnamed_addr constant [4 x i8] c"%d\0A\00", align 1

; Function Attrs: noinline nounwind uwtable
define dso_local i32 @main() #0 {
  %1 = alloca i32, align 4
  %2 = alloca i32, align 4
  %3 = alloca i32, align 4
  %4 = alloca i32, align 4
  %5 = alloca i32, align 4
  %6 = alloca [101 x [101 x i32]], align 16
  %7 = alloca i32, align 4
  store i32 0, i32* %1, align 4
  store i32 0, i32* %7, align 4
  %8 = call i32 (i8*, ...) @__isoc99_scanf(i8* getelementptr inbounds ([5 x i8], [5 x i8]* @.str, i64 0, i64 0), i32* %4, i32* %5)
  store i32 0, i32* %2, align 4
  br label %9

9:                                                ; preds = %30, %0
  %10 = load i32, i32* %2, align 4
  %11 = load i32, i32* %4, align 4
  %12 = icmp slt i32 %10, %11
  br i1 %12, label %13, label %33

13:                                               ; preds = %9
  store i32 0, i32* %3, align 4
  br label %14

14:                                               ; preds = %26, %13
  %15 = load i32, i32* %3, align 4
  %16 = load i32, i32* %5, align 4
  %17 = icmp slt i32 %15, %16
  br i1 %17, label %18, label %29

18:                                               ; preds = %14
  %19 = load i32, i32* %2, align 4
  %20 = sext i32 %19 to i64
  %21 = getelementptr inbounds [101 x [101 x i32]], [101 x [101 x i32]]* %6, i64 0, i64 %20
  %22 = load i32, i32* %3, align 4
  %23 = sext i32 %22 to i64
  %24 = getelementptr inbounds [101 x i32], [101 x i32]* %21, i64 0, i64 %23
  %25 = call i32 (i8*, ...) @__isoc99_scanf(i8* getelementptr inbounds ([3 x i8], [3 x i8]* @.str.1, i64 0, i64 0), i32* %24)
  br label %26

26:                                               ; preds = %18
  %27 = load i32, i32* %3, align 4
  %28 = add nsw i32 %27, 1
  store i32 %28, i32* %3, align 4
  br label %14

29:                                               ; preds = %14
  br label %30

30:                                               ; preds = %29
  %31 = load i32, i32* %2, align 4
  %32 = add nsw i32 %31, 1
  store i32 %32, i32* %2, align 4
  br label %9

33:                                               ; preds = %9
  store i32 0, i32* %2, align 4
  br label %34

34:                                               ; preds = %194, %33
  %35 = load i32, i32* %7, align 4
  %36 = load i32, i32* %4, align 4
  %37 = load i32, i32* %5, align 4
  %38 = mul nsw i32 %36, %37
  %39 = icmp ne i32 %35, %38
  br i1 %39, label %40, label %197

40:                                               ; preds = %34
  %41 = load i32, i32* %2, align 4
  store i32 %41, i32* %3, align 4
  br label %42

42:                                               ; preds = %66, %40
  %43 = load i32, i32* %3, align 4
  %44 = load i32, i32* %5, align 4
  %45 = load i32, i32* %2, align 4
  %46 = sub nsw i32 %44, %45
  %47 = icmp slt i32 %43, %46
  br i1 %47, label %48, label %69

48:                                               ; preds = %42
  %49 = load i32, i32* %2, align 4
  %50 = sext i32 %49 to i64
  %51 = getelementptr inbounds [101 x [101 x i32]], [101 x [101 x i32]]* %6, i64 0, i64 %50
  %52 = load i32, i32* %3, align 4
  %53 = sext i32 %52 to i64
  %54 = getelementptr inbounds [101 x i32], [101 x i32]* %51, i64 0, i64 %53
  %55 = load i32, i32* %54, align 4
  %56 = call i32 (i8*, ...) @printf(i8* getelementptr inbounds ([4 x i8], [4 x i8]* @.str.2, i64 0, i64 0), i32 %55)
  %57 = load i32, i32* %7, align 4
  %58 = add nsw i32 %57, 1
  store i32 %58, i32* %7, align 4
  %59 = load i32, i32* %7, align 4
  %60 = load i32, i32* %4, align 4
  %61 = load i32, i32* %5, align 4
  %62 = mul nsw i32 %60, %61
  %63 = icmp eq i32 %59, %62
  br i1 %63, label %64, label %65

64:                                               ; preds = %48
  br label %69

65:                                               ; preds = %48
  br label %66

66:                                               ; preds = %65
  %67 = load i32, i32* %3, align 4
  %68 = add nsw i32 %67, 1
  store i32 %68, i32* %3, align 4
  br label %42

69:                                               ; preds = %64, %42
  %70 = load i32, i32* %7, align 4
  %71 = load i32, i32* %4, align 4
  %72 = load i32, i32* %5, align 4
  %73 = mul nsw i32 %71, %72
  %74 = icmp eq i32 %70, %73
  br i1 %74, label %75, label %76

75:                                               ; preds = %69
  br label %197

76:                                               ; preds = %69
  %77 = load i32, i32* %2, align 4
  %78 = add nsw i32 %77, 1
  store i32 %78, i32* %3, align 4
  br label %79

79:                                               ; preds = %106, %76
  %80 = load i32, i32* %3, align 4
  %81 = load i32, i32* %4, align 4
  %82 = load i32, i32* %2, align 4
  %83 = sub nsw i32 %81, %82
  %84 = icmp slt i32 %80, %83
  br i1 %84, label %85, label %109

85:                                               ; preds = %79
  %86 = load i32, i32* %3, align 4
  %87 = sext i32 %86 to i64
  %88 = getelementptr inbounds [101 x [101 x i32]], [101 x [101 x i32]]* %6, i64 0, i64 %87
  %89 = load i32, i32* %5, align 4
  %90 = sub nsw i32 %89, 1
  %91 = load i32, i32* %2, align 4
  %92 = sub nsw i32 %90, %91
  %93 = sext i32 %92 to i64
  %94 = getelementptr inbounds [101 x i32], [101 x i32]* %88, i64 0, i64 %93
  %95 = load i32, i32* %94, align 4
  %96 = call i32 (i8*, ...) @printf(i8* getelementptr inbounds ([4 x i8], [4 x i8]* @.str.2, i64 0, i64 0), i32 %95)
  %97 = load i32, i32* %7, align 4
  %98 = add nsw i32 %97, 1
  store i32 %98, i32* %7, align 4
  %99 = load i32, i32* %7, align 4
  %100 = load i32, i32* %4, align 4
  %101 = load i32, i32* %5, align 4
  %102 = mul nsw i32 %100, %101
  %103 = icmp eq i32 %99, %102
  br i1 %103, label %104, label %105

104:                                              ; preds = %85
  br label %109

105:                                              ; preds = %85
  br label %106

106:                                              ; preds = %105
  %107 = load i32, i32* %3, align 4
  %108 = add nsw i32 %107, 1
  store i32 %108, i32* %3, align 4
  br label %79

109:                                              ; preds = %104, %79
  %110 = load i32, i32* %7, align 4
  %111 = load i32, i32* %4, align 4
  %112 = load i32, i32* %5, align 4
  %113 = mul nsw i32 %111, %112
  %114 = icmp eq i32 %110, %113
  br i1 %114, label %115, label %116

115:                                              ; preds = %109
  br label %197

116:                                              ; preds = %109
  %117 = load i32, i32* %5, align 4
  %118 = load i32, i32* %2, align 4
  %119 = sub nsw i32 %117, %118
  %120 = sub nsw i32 %119, 2
  store i32 %120, i32* %3, align 4
  br label %121

121:                                              ; preds = %146, %116
  %122 = load i32, i32* %3, align 4
  %123 = load i32, i32* %2, align 4
  %124 = icmp sge i32 %122, %123
  br i1 %124, label %125, label %149

125:                                              ; preds = %121
  %126 = load i32, i32* %4, align 4
  %127 = sub nsw i32 %126, 1
  %128 = load i32, i32* %2, align 4
  %129 = sub nsw i32 %127, %128
  %130 = sext i32 %129 to i64
  %131 = getelementptr inbounds [101 x [101 x i32]], [101 x [101 x i32]]* %6, i64 0, i64 %130
  %132 = load i32, i32* %3, align 4
  %133 = sext i32 %132 to i64
  %134 = getelementptr inbounds [101 x i32], [101 x i32]* %131, i64 0, i64 %133
  %135 = load i32, i32* %134, align 4
  %136 = call i32 (i8*, ...) @printf(i8* getelementptr inbounds ([4 x i8], [4 x i8]* @.str.2, i64 0, i64 0), i32 %135)
  %137 = load i32, i32* %7, align 4
  %138 = add nsw i32 %137, 1
  store i32 %138, i32* %7, align 4
  %139 = load i32, i32* %7, align 4
  %140 = load i32, i32* %4, align 4
  %141 = load i32, i32* %5, align 4
  %142 = mul nsw i32 %140, %141
  %143 = icmp eq i32 %139, %142
  br i1 %143, label %144, label %145

144:                                              ; preds = %125
  br label %149

145:                                              ; preds = %125
  br label %146

146:                                              ; preds = %145
  %147 = load i32, i32* %3, align 4
  %148 = add nsw i32 %147, -1
  store i32 %148, i32* %3, align 4
  br label %121

149:                                              ; preds = %144, %121
  %150 = load i32, i32* %7, align 4
  %151 = load i32, i32* %4, align 4
  %152 = load i32, i32* %5, align 4
  %153 = mul nsw i32 %151, %152
  %154 = icmp eq i32 %150, %153
  br i1 %154, label %155, label %156

155:                                              ; preds = %149
  br label %197

156:                                              ; preds = %149
  %157 = load i32, i32* %4, align 4
  %158 = load i32, i32* %2, align 4
  %159 = sub nsw i32 %157, %158
  %160 = sub nsw i32 %159, 2
  store i32 %160, i32* %3, align 4
  br label %161

161:                                              ; preds = %183, %156
  %162 = load i32, i32* %3, align 4
  %163 = load i32, i32* %2, align 4
  %164 = icmp sgt i32 %162, %163
  br i1 %164, label %165, label %186

165:                                              ; preds = %161
  %166 = load i32, i32* %3, align 4
  %167 = sext i32 %166 to i64
  %168 = getelementptr inbounds [101 x [101 x i32]], [101 x [101 x i32]]* %6, i64 0, i64 %167
  %169 = load i32, i32* %2, align 4
  %170 = sext i32 %169 to i64
  %171 = getelementptr inbounds [101 x i32], [101 x i32]* %168, i64 0, i64 %170
  %172 = load i32, i32* %171, align 4
  %173 = call i32 (i8*, ...) @printf(i8* getelementptr inbounds ([4 x i8], [4 x i8]* @.str.2, i64 0, i64 0), i32 %172)
  %174 = load i32, i32* %7, align 4
  %175 = add nsw i32 %174, 1
  store i32 %175, i32* %7, align 4
  %176 = load i32, i32* %7, align 4
  %177 = load i32, i32* %4, align 4
  %178 = load i32, i32* %5, align 4
  %179 = mul nsw i32 %177, %178
  %180 = icmp eq i32 %176, %179
  br i1 %180, label %181, label %182

181:                                              ; preds = %165
  br label %186

182:                                              ; preds = %165
  br label %183

183:                                              ; preds = %182
  %184 = load i32, i32* %3, align 4
  %185 = add nsw i32 %184, -1
  store i32 %185, i32* %3, align 4
  br label %161

186:                                              ; preds = %181, %161
  %187 = load i32, i32* %7, align 4
  %188 = load i32, i32* %4, align 4
  %189 = load i32, i32* %5, align 4
  %190 = mul nsw i32 %188, %189
  %191 = icmp eq i32 %187, %190
  br i1 %191, label %192, label %193

192:                                              ; preds = %186
  br label %197

193:                                              ; preds = %186
  br label %194

194:                                              ; preds = %193
  %195 = load i32, i32* %2, align 4
  %196 = add nsw i32 %195, 1
  store i32 %196, i32* %2, align 4
  br label %34

197:                                              ; preds = %192, %155, %115, %75, %34
  ret i32 0
}

declare dso_local i32 @__isoc99_scanf(i8*, ...) #1

declare dso_local i32 @printf(i8*, ...) #1


!llvm.module.flags = !{!0}
!llvm.ident = !{!1}

!0 = !{i32 1, !"wchar_size", i32 4}
!1 = !{!"clang version 10.0.0-4ubuntu1 "}
